; Function Attrs: nounwind uwtable
define dso_local noundef i64 @WriteOffset(ptr noundef %0, i64 noundef %1, i32 noundef %2) local_unnamed_addr #0 {
  %4 = getelementptr inbounds nuw i8, ptr %0, i64 248
  %5 = load ptr, ptr %4, align 8
  %6 = tail call i32 %5(ptr noundef %0, i32 noundef %2) #22
  br label %7

7:                                                ; preds = %3, %7
  %.010 = phi i32 [ 0, %3 ], [ %13, %7 ]
  %.089 = phi i64 [ %1, %3 ], [ %12, %7 ]
  %8 = load ptr, ptr %4, align 8
  %9 = trunc i64 %.089 to i32
  %10 = and i32 %9, 255
  %11 = tail call i32 %8(ptr noundef nonnull %0, i32 noundef %10) #22
  %12 = ashr i64 %.089, 8
  %13 = add nuw nsw i32 %.010, 1
  %exitcond.not = icmp eq i32 %13, 8
  br i1 %exitcond.not, label %14, label %7, !llvm.loop !44

14:                                               ; preds = %7
  ret i64 9
}